target datalayout = "e-m:e-p270:32:32-p271:32:32-p272:64:64-i64:64-i128:128-f80:128-n8:16:32:64-S128"
target triple = "x86_64-pc-linux-gnu"

; Function Attrs: nounwind uwtable
define internal i32 @uv__get_surrogate_value(ptr noundef %0, i64 noundef %1) #0 {
  %3 = alloca i32, align 4
  %4 = alloca ptr, align 8
  %5 = alloca i64, align 8
  %6 = alloca i16, align 2
  %7 = alloca i16, align 2
  %8 = alloca i32, align 4
  store ptr %0, ptr %4, align 8
  store i64 %1, ptr %5, align 8
  call void @llvm.lifetime.start.p0(i64 2, ptr %6) #3
  call void @llvm.lifetime.start.p0(i64 2, ptr %7) #3
  %9 = load ptr, ptr %4, align 8
  %10 = getelementptr inbounds i16, ptr %9, i64 0
  %11 = load i16, ptr %10, align 2
  store i16 %11, ptr %6, align 2
  %12 = load i16, ptr %6, align 2
  %13 = zext i16 %12 to i32
  %14 = icmp sge i32 %13, 55296
  br i1 %14, label %15, label %44

15:                                               ; preds = %2
  %16 = load i16, ptr %6, align 2
  %17 = zext i16 %16 to i32
  %18 = icmp sle i32 %17, 56319
  br i1 %18, label %19, label %44

19:                                               ; preds = %15
  %20 = load i64, ptr %5, align 8
  %21 = icmp ne i64 %20, 1
  br i1 %21, label %22, label %44

22:                                               ; preds = %19
  %23 = load ptr, ptr %4, align 8
  %24 = getelementptr inbounds i16, ptr %23, i64 1
  %25 = load i16, ptr %24, align 2
  store i16 %25, ptr %7, align 2
  %26 = load i16, ptr %7, align 2
  %27 = zext i16 %26 to i32
  %28 = icmp sge i32 %27, 56320
  br i1 %28, label %29, label %43

29:                                               ; preds = %22
  %30 = load i16, ptr %7, align 2
  %31 = zext i16 %30 to i32
  %32 = icmp sle i32 %31, 57343
  br i1 %32, label %33, label %43

33:                                               ; preds = %29
  %34 = load i16, ptr %6, align 2
  %35 = zext i16 %34 to i32
  %36 = sub nsw i32 %35, 55296
  %37 = shl i32 %36, 10
  %38 = add nsw i32 65536, %37
  %39 = load i16, ptr %7, align 2
  %40 = zext i16 %39 to i32
  %41 = sub nsw i32 %40, 56320
  %42 = add nsw i32 %38, %41
  store i32 %42, ptr %3, align 4
  store i32 1, ptr %8, align 4
  br label %47

43:                                               ; preds = %29, %22
  br label %44

44:                                               ; preds = %43, %19, %15, %2
  %45 = load i16, ptr %6, align 2
  %46 = zext i16 %45 to i32
  store i32 %46, ptr %3, align 4
  store i32 1, ptr %8, align 4
  br label %47

47:                                               ; preds = %44, %33
  call void @llvm.lifetime.end.p0(i64 2, ptr %7) #3
  call void @llvm.lifetime.end.p0(i64 2, ptr %6) #3
  %48 = load i32, ptr %3, align 4
  ret i32 %48
}

; Function Attrs: nounwind uwtable
define dso_local i64 @uv_utf16_length_as_wtf8(ptr noundef %0, i64 noundef %1) #0 {
  %3 = alloca ptr, align 8
  %4 = alloca i64, align 8
  %5 = alloca i64, align 8
  %6 = alloca i32, align 4
  store ptr %0, ptr %3, align 8
  store i64 %1, ptr %4, align 8
  call void @llvm.lifetime.start.p0(i64 8, ptr %5) #3
  call void @llvm.lifetime.start.p0(i64 4, ptr %6) #3
  store i64 0, ptr %5, align 8
  br label %7

7:                                                ; preds = %59, %2
  %8 = load i64, ptr %4, align 8
  %9 = icmp ne i64 %8, 0
  br i1 %9, label %10, label %60

10:                                               ; preds = %7
  %11 = load ptr, ptr %3, align 8
  %12 = load i64, ptr %4, align 8
  %13 = call i32 @uv__get_surrogate_value(ptr noundef %11, i64 noundef %12)
  store i32 %13, ptr %6, align 4
  %14 = load i64, ptr %4, align 8
  %15 = icmp slt i64 %14, 0
  br i1 %15, label %16, label %20

16:                                               ; preds = %10
  %17 = load i32, ptr %6, align 4
  %18 = icmp eq i32 %17, 0
  br i1 %18, label %19, label %20

19:                                               ; preds = %16
  br label %60

20:                                               ; preds = %16, %10
  %21 = load i32, ptr %6, align 4
  %22 = icmp slt i32 %21, 128
  br i1 %22, label %23, label %26

23:                                               ; preds = %20
  %24 = load i64, ptr %5, align 8
  %25 = add i64 %24, 1
  store i64 %25, ptr %5, align 8
  br label %51

26:                                               ; preds = %20
  %27 = load i32, ptr %6, align 4
  %28 = icmp slt i32 %27, 2048
  br i1 %28, label %29, label %32

29:                                               ; preds = %26
  %30 = load i64, ptr %5, align 8
  %31 = add i64 %30, 2
  store i64 %31, ptr %5, align 8
  br label %50

32:                                               ; preds = %26
  %33 = load i32, ptr %6, align 4
  %34 = icmp slt i32 %33, 65536
  br i1 %34, label %35, label %38

35:                                               ; preds = %32
  %36 = load i64, ptr %5, align 8
  %37 = add i64 %36, 3
  store i64 %37, ptr %5, align 8
  br label %49

38:                                               ; preds = %32
  %39 = load i64, ptr %5, align 8
  %40 = add i64 %39, 4
  store i64 %40, ptr %5, align 8
  %41 = load ptr, ptr %3, align 8
  %42 = getelementptr inbounds nuw i16, ptr %41, i32 1
  store ptr %42, ptr %3, align 8
  %43 = load i64, ptr %4, align 8
  %44 = icmp sgt i64 %43, 0
  br i1 %44, label %45, label %48

45:                                               ; preds = %38
  %46 = load i64, ptr %4, align 8
  %47 = add nsw i64 %46, -1
  store i64 %47, ptr %4, align 8
  br label %48

48:                                               ; preds = %45, %38
  br label %49

49:                                               ; preds = %48, %35
  br label %50

50:                                               ; preds = %49, %29
  br label %51

51:                                               ; preds = %50, %23
  %52 = load ptr, ptr %3, align 8
  %53 = getelementptr inbounds nuw i16, ptr %52, i32 1
  store ptr %53, ptr %3, align 8
  %54 = load i64, ptr %4, align 8
  %55 = icmp sgt i64 %54, 0
  br i1 %55, label %56, label %59

56:                                               ; preds = %51
  %57 = load i64, ptr %4, align 8
  %58 = add nsw i64 %57, -1
  store i64 %58, ptr %4, align 8
  br label %59

59:                                               ; preds = %56, %51
  br label %7

60:                                               ; preds = %19, %7
  %61 = load i64, ptr %5, align 8
  call void @llvm.lifetime.end.p0(i64 4, ptr %6) #3
  call void @llvm.lifetime.end.p0(i64 8, ptr %5) #3
  ret i64 %61
}