; Function Attrs: nofree norecurse nosync nounwind memory(argmem: read) uwtable
define dso_local i64 @uv_utf16_length_as_wtf8(ptr noundef readonly captures(none) %0, i64 noundef %1) local_unnamed_addr #2 {
  %.not25 = icmp eq i64 %1, 0
  br i1 %.not25, label %uv__get_surrogate_value.exit._crit_edge, label %.lr.ph

.lr.ph:                                           ; preds = %2, %35
  %.028 = phi ptr [ %36, %35 ], [ %0, %2 ]
  %.01927 = phi i64 [ %.120, %35 ], [ 0, %2 ]
  %.02126 = phi i64 [ %spec.select24, %35 ], [ %1, %2 ]
  %3 = load i16, ptr %.028, align 2
  %4 = zext i16 %3 to i32
  %5 = and i16 %3, -1024
  %or.cond.i = icmp eq i16 %5, -10240
  %6 = icmp ne i64 %.02126, 1
  %or.cond4.i = and i1 %6, %or.cond.i
  br i1 %or.cond4.i, label %7, label %uv__get_surrogate_value.exit

7:                                                ; preds = %.lr.ph
  %8 = getelementptr inbounds nuw i8, ptr %.028, i64 2
  %9 = load i16, ptr %8, align 2
  %10 = and i16 %9, -1024
  %or.cond7.i = icmp eq i16 %10, -9216
  br i1 %or.cond7.i, label %11, label %uv__get_surrogate_value.exit

11:                                               ; preds = %7
  %12 = zext i16 %9 to i32
  %13 = shl nuw nsw i32 %4, 10
  %14 = add nsw i32 %13, -56613888
  %15 = add nuw nsw i32 %14, %12
  br label %uv__get_surrogate_value.exit

uv__get_surrogate_value.exit:                     ; preds = %.lr.ph, %7, %11
  %.0.i = phi i32 [ %15, %11 ], [ %4, %7 ], [ %4, %.lr.ph ]
  %16 = icmp slt i64 %.02126, 0
  %17 = icmp eq i32 %.0.i, 0
  %or.cond = select i1 %16, i1 %17, i1 false
  br i1 %or.cond, label %uv__get_surrogate_value.exit._crit_edge, label %18

18:                                               ; preds = %uv__get_surrogate_value.exit
  %19 = icmp samesign ult i32 %.0.i, 128
  br i1 %19, label %20, label %22

20:                                               ; preds = %18
  %21 = add i64 %.01927, 1
  br label %35

22:                                               ; preds = %18
  %23 = icmp samesign ult i32 %.0.i, 2048
  br i1 %23, label %24, label %26

24:                                               ; preds = %22
  %25 = add i64 %.01927, 2
  br label %35

26:                                               ; preds = %22
  %27 = icmp samesign ult i32 %.0.i, 65536
  br i1 %27, label %28, label %30

28:                                               ; preds = %26
  %29 = add i64 %.01927, 3
  br label %35

30:                                               ; preds = %26
  %31 = add i64 %.01927, 4
  %32 = getelementptr inbounds nuw i8, ptr %.028, i64 2
  %33 = icmp sgt i64 %.02126, 0
  %34 = sext i1 %33 to i64
  %spec.select = add nsw i64 %.02126, %34
  br label %35

35:                                               ; preds = %30, %24, %28, %20
  %.122 = phi i64 [ %.02126, %20 ], [ %.02126, %24 ], [ %.02126, %28 ], [ %spec.select, %30 ]
  %.120 = phi i64 [ %21, %20 ], [ %25, %24 ], [ %29, %28 ], [ %31, %30 ]
  %.1 = phi ptr [ %.028, %20 ], [ %.028, %24 ], [ %.028, %28 ], [ %32, %30 ]
  %36 = getelementptr inbounds nuw i8, ptr %.1, i64 2
  %37 = icmp sgt i64 %.122, 0
  %38 = sext i1 %37 to i64
  %spec.select24 = add nsw i64 %.122, %38
  %.not = icmp eq i64 %spec.select24, 0
  br i1 %.not, label %uv__get_surrogate_value.exit._crit_edge, label %.lr.ph

uv__get_surrogate_value.exit._crit_edge:          ; preds = %35, %uv__get_surrogate_value.exit, %2
  %.019.lcssa = phi i64 [ 0, %2 ], [ %.01927, %uv__get_surrogate_value.exit ], [ %.120, %35 ]
  ret i64 %.019.lcssa
}